; Function Attrs: mustprogress uwtable
define noundef zeroext i1 @_ZN5draco16ReadFileToBufferERKNSt7__cxx1112basic_stringIcSt11char_traitsIcESaIcEEEPSt6vectorIhSaIhEE(ptr noundef nonnull align 8 dereferenceable(32) %0, ptr noundef %1) local_unnamed_addr #3 personality ptr @__gxx_personality_v0 {
  %3 = alloca %"class.std::unique_ptr", align 8
  call void @_ZN5draco17FileReaderFactory10OpenReaderERKNSt7__cxx1112basic_stringIcSt11char_traitsIcESaIcEEE(ptr dead_on_unwind nonnull writable sret(%"class.std::unique_ptr") align 8 %3, ptr noundef nonnull align 8 dereferenceable(32) %0)
  %4 = load ptr, ptr %3, align 8
  %.not.i = icmp eq ptr %4, null
  br i1 %.not.i, label %_ZNSt10unique_ptrIN5draco19FileReaderInterfaceESt14default_deleteIS1_EED2Ev.exit7, label %5

5:                                                ; preds = %2
  %6 = load ptr, ptr %4, align 8
  %7 = getelementptr inbounds nuw i8, ptr %6, i64 24
  %8 = load ptr, ptr %7, align 8
  %9 = invoke noundef zeroext i1 %8(ptr noundef nonnull align 8 dereferenceable(8) %4, ptr noundef %1)
          to label %16 unwind label %10

10:                                               ; preds = %5
  %11 = landingpad { ptr, i32 }
          cleanup
  %12 = load ptr, ptr %3, align 8
  %.not.i4 = icmp eq ptr %12, null
  br i1 %.not.i4, label %_ZNSt10unique_ptrIN5draco19FileReaderInterfaceESt14default_deleteIS1_EED2Ev.exit, label %_ZNKSt14default_deleteIN5draco19FileReaderInterfaceEEclEPS1_.exit.i

_ZNKSt14default_deleteIN5draco19FileReaderInterfaceEEclEPS1_.exit.i: ; preds = %10
  %13 = load ptr, ptr %12, align 8
  %14 = getelementptr inbounds nuw i8, ptr %13, i64 8
  %15 = load ptr, ptr %14, align 8
  call void %15(ptr noundef nonnull align 8 dereferenceable(8) %12) #11
  br label %_ZNSt10unique_ptrIN5draco19FileReaderInterfaceESt14default_deleteIS1_EED2Ev.exit

_ZNSt10unique_ptrIN5draco19FileReaderInterfaceESt14default_deleteIS1_EED2Ev.exit: ; preds = %10, %_ZNKSt14default_deleteIN5draco19FileReaderInterfaceEEclEPS1_.exit.i
  resume { ptr, i32 } %11

16:                                               ; preds = %5
  %.pr = load ptr, ptr %3, align 8
  %.not.i5 = icmp eq ptr %.pr, null
  br i1 %.not.i5, label %_ZNSt10unique_ptrIN5draco19FileReaderInterfaceESt14default_deleteIS1_EED2Ev.exit7, label %_ZNKSt14default_deleteIN5draco19FileReaderInterfaceEEclEPS1_.exit.i6

_ZNKSt14default_deleteIN5draco19FileReaderInterfaceEEclEPS1_.exit.i6: ; preds = %16
  %17 = load ptr, ptr %.pr, align 8
  %18 = getelementptr inbounds nuw i8, ptr %17, i64 8
  %19 = load ptr, ptr %18, align 8
  call void %19(ptr noundef nonnull align 8 dereferenceable(8) %.pr) #11
  br label %_ZNSt10unique_ptrIN5draco19FileReaderInterfaceESt14default_deleteIS1_EED2Ev.exit7

_ZNSt10unique_ptrIN5draco19FileReaderInterfaceESt14default_deleteIS1_EED2Ev.exit7: ; preds = %2, %16, %_ZNKSt14default_deleteIN5draco19FileReaderInterfaceEEclEPS1_.exit.i6
  %.010 = phi i1 [ %9, %16 ], [ %9, %_ZNKSt14default_deleteIN5draco19FileReaderInterfaceEEclEPS1_.exit.i6 ], [ false, %2 ]
  ret i1 %.010
}